target datalayout = "e-m:e-p270:32:32-p271:32:32-p272:64:64-i64:64-i128:128-f80:128-n8:16:32:64-S128"
target triple = "x86_64-pc-linux-gnu"

%struct.H5AC_proxy_entry_t = type { %struct.H5C_cache_entry_t, i64, ptr, i64, i64, i64 }
%struct.H5C_cache_entry_t = type { ptr, i64, i64, ptr, i8, ptr, i8, i8, i8, i8, i32, i8, i8, i8, i8, i8, i32, ptr, i32, i32, i32, i32, i32, i8, i8, ptr, ptr, ptr, ptr, ptr, ptr, i8, i32, i8, i64, ptr, i64, i64, i32, i8, i32, i32, i8, ptr, ptr, ptr }

@H5AC_init_g = external global i8, align 1
@H5_libterm_g = external global i8, align 1
@.str.1 = private unnamed_addr constant [109 x i8] c"generated/home/dtcxzyw/WorkSpace/Projects/compilers/llvm-opt-benchmark/bench/hdf5/hdf5/src/H5ACproxy_entry.c\00", align 1
@__func__.H5AC_proxy_entry_create = private unnamed_addr constant [24 x i8] c"H5AC_proxy_entry_create\00", align 1
@H5E_FUNC_g = external global i64, align 8
@H5E_CANTINIT_g = external global i64, align 8
@.str.2 = private unnamed_addr constant [32 x i8] c"interface initialization failed\00", align 1
@H5E_CACHE_g = external global i64, align 8
@H5E_CANTALLOC_g = external global i64, align 8
@.str.3 = private unnamed_addr constant [27 x i8] c"can't allocate proxy entry\00", align 1
@H5_H5AC_proxy_entry_t_reg_free_list = internal global { i8, [3 x i8], i32, i32, [4 x i8], ptr, i64, ptr } { i8 0, [3 x i8] zeroinitializer, i32 0, i32 0, [4 x i8] zeroinitializer, ptr @.str.17, i64 288, ptr null }, align 8

; Function Attrs: nounwind uwtable
define ptr @H5AC_proxy_entry_create() #0 {
  %1 = alloca ptr, align 8
  %2 = alloca ptr, align 8
  %3 = alloca i8, align 1
  call void @llvm.lifetime.start.p0(i64 8, ptr %1) #4
  store ptr null, ptr %1, align 8, !tbaa !19
  call void @llvm.lifetime.start.p0(i64 8, ptr %2) #4
  store ptr null, ptr %2, align 8, !tbaa !19
  call void @llvm.lifetime.start.p0(i64 1, ptr %3) #4
  store i8 0, ptr %3, align 1, !tbaa !9
  %4 = load i8, ptr @H5AC_init_g, align 1, !tbaa !9, !range !11, !noundef !12
  %5 = trunc i8 %4 to i1
  br i1 %5, label %10, label %6

6:                                                ; preds = %0
  %7 = load i8, ptr @H5_libterm_g, align 1, !tbaa !9, !range !11, !noundef !12
  %8 = trunc i8 %7 to i1
  %9 = xor i1 %8, true
  br label %10

10:                                               ; preds = %6, %0
  %11 = phi i1 [ false, %0 ], [ %9, %6 ]
  %12 = xor i1 %11, true
  %13 = xor i1 %12, true
  %14 = zext i1 %13 to i32
  %15 = sext i32 %14 to i64
  %16 = call i64 @llvm.expect.i64(i64 %15, i64 0)
  %17 = icmp ne i64 %16, 0
  br i1 %17, label %18, label %41

18:                                               ; preds = %10
  store i8 1, ptr @H5AC_init_g, align 1, !tbaa !9
  %19 = call i32 @H5AC__init_package()
  %20 = icmp slt i32 %19, 0
  br i1 %20, label %21, label %40

21:                                               ; preds = %18
  store i8 0, ptr @H5AC_init_g, align 1, !tbaa !9
  br label %22

22:                                               ; preds = %21
  br label %23

23:                                               ; preds = %22
  br label %24

24:                                               ; preds = %23
  %25 = load i64, ptr @H5E_FUNC_g, align 8, !tbaa !13
  %26 = load i64, ptr @H5E_CANTINIT_g, align 8, !tbaa !13
  %27 = call i32 (ptr, ptr, i32, i64, i64, ptr, ...) @H5E_printf_stack(ptr noundef @.str.1, ptr noundef @__func__.H5AC_proxy_entry_create, i32 noundef 110, i64 noundef %25, i64 noundef %26, ptr noundef @.str.2)
  br label %28

28:                                               ; preds = %24
  br label %29

29:                                               ; preds = %28
  store i8 1, ptr %3, align 1, !tbaa !9
  %30 = load i8, ptr %3, align 1, !tbaa !9, !range !11, !noundef !12
  %31 = trunc i8 %30 to i1
  %32 = zext i1 %31 to i8
  store i8 %32, ptr %3, align 1, !tbaa !9
  br label %33

33:                                               ; preds = %29
  br label %34

34:                                               ; preds = %33
  br label %35

35:                                               ; preds = %34
  store ptr null, ptr %2, align 8, !tbaa !19
  br label %82

36:                                               ; No predecessors!
  br label %37

37:                                               ; preds = %36
  br label %38

38:                                               ; preds = %37
  br label %39

39:                                               ; preds = %38
  br label %40

40:                                               ; preds = %39, %18
  br label %41

41:                                               ; preds = %40, %10
  %42 = load i8, ptr @H5AC_init_g, align 1, !tbaa !9, !range !11, !noundef !12
  %43 = trunc i8 %42 to i1
  br i1 %43, label %48, label %44

44:                                               ; preds = %41
  %45 = load i8, ptr @H5_libterm_g, align 1, !tbaa !9, !range !11, !noundef !12
  %46 = trunc i8 %45 to i1
  %47 = xor i1 %46, true
  br label %48

48:                                               ; preds = %44, %41
  %49 = phi i1 [ true, %41 ], [ %47, %44 ]
  %50 = xor i1 %49, true
  %51 = xor i1 %50, true
  %52 = zext i1 %51 to i32
  %53 = sext i32 %52 to i64
  %54 = call i64 @llvm.expect.i64(i64 %53, i64 1)
  %55 = icmp ne i64 %54, 0
  br i1 %55, label %56, label %93

56:                                               ; preds = %48
  %57 = call noalias ptr @H5FL_reg_calloc(ptr noundef @H5_H5AC_proxy_entry_t_reg_free_list)
  store ptr %57, ptr %1, align 8, !tbaa !19
  %58 = icmp eq ptr null, %57
  br i1 %58, label %59, label %78

59:                                               ; preds = %56
  br label %60

60:                                               ; preds = %59
  br label %61

61:                                               ; preds = %60
  br label %62

62:                                               ; preds = %61
  %63 = load i64, ptr @H5E_CACHE_g, align 8, !tbaa !13
  %64 = load i64, ptr @H5E_CANTALLOC_g, align 8, !tbaa !13
  %65 = call i32 (ptr, ptr, i32, i64, i64, ptr, ...) @H5E_printf_stack(ptr noundef @.str.1, ptr noundef @__func__.H5AC_proxy_entry_create, i32 noundef 114, i64 noundef %63, i64 noundef %64, ptr noundef @.str.3)
  br label %66

66:                                               ; preds = %62
  br label %67

67:                                               ; preds = %66
  store i8 1, ptr %3, align 1, !tbaa !9
  %68 = load i8, ptr %3, align 1, !tbaa !9, !range !11, !noundef !12
  %69 = trunc i8 %68 to i1
  %70 = zext i1 %69 to i8
  store i8 %70, ptr %3, align 1, !tbaa !9
  br label %71

71:                                               ; preds = %67
  br label %72

72:                                               ; preds = %71
  br label %73

73:                                               ; preds = %72
  store ptr null, ptr %2, align 8, !tbaa !19
  br label %82

74:                                               ; No predecessors!
  br label %75

75:                                               ; preds = %74
  br label %76

76:                                               ; preds = %75
  br label %77

77:                                               ; preds = %76
  br label %78

78:                                               ; preds = %77, %56
  %79 = load ptr, ptr %1, align 8, !tbaa !19
  %80 = getelementptr inbounds nuw %struct.H5AC_proxy_entry_t, ptr %79, i32 0, i32 1
  store i64 -1, ptr %80, align 8, !tbaa !31
  %81 = load ptr, ptr %1, align 8, !tbaa !19
  store ptr %81, ptr %2, align 8, !tbaa !19
  br label %82

82:                                               ; preds = %78, %73, %35
  %83 = load ptr, ptr %2, align 8, !tbaa !19
  %84 = icmp ne ptr %83, null
  br i1 %84, label %92, label %85

85:                                               ; preds = %82
  %86 = load ptr, ptr %1, align 8, !tbaa !19
  %87 = icmp ne ptr %86, null
  br i1 %87, label %88, label %91

88:                                               ; preds = %85
  %89 = load ptr, ptr %1, align 8, !tbaa !19
  %90 = call ptr @H5FL_reg_free(ptr noundef @H5_H5AC_proxy_entry_t_reg_free_list, ptr noundef %89)
  store ptr %90, ptr %1, align 8, !tbaa !19
  br label %91

91:                                               ; preds = %88, %85
  br label %92

92:                                               ; preds = %91, %82
  br label %93

93:                                               ; preds = %92, %48
  %94 = load ptr, ptr %2, align 8, !tbaa !19
  call void @llvm.lifetime.end.p0(i64 1, ptr %3) #4
  call void @llvm.lifetime.end.p0(i64 8, ptr %2) #4
  call void @llvm.lifetime.end.p0(i64 8, ptr %1) #4
  ret ptr %94
}