; Function Attrs: nounwind uwtable
define noalias ptr @H5AC_proxy_entry_create() local_unnamed_addr #1 {
  %1 = load i8, ptr @H5AC_init_g, align 1, !tbaa !3, !range !7, !noundef !8
  %2 = trunc nuw i8 %1 to i1
  %3 = load i8, ptr @H5_libterm_g, align 1, !range !7
  %4 = trunc nuw i8 %3 to i1
  %5 = select i1 %2, i1 true, i1 %4
  br i1 %5, label %13, label %6, !prof !9

6:                                                ; preds = %0
  store i8 1, ptr @H5AC_init_g, align 1, !tbaa !3
  %7 = tail call i32 @H5AC__init_package() #3
  %8 = icmp slt i32 %7, 0
  br i1 %8, label %9, label %._crit_edge

._crit_edge:                                      ; preds = %6
  %.pre = load i8, ptr @H5AC_init_g, align 1, !tbaa !3, !range !7
  %.pre11 = load i8, ptr @H5_libterm_g, align 1, !range !7
  %.pre12 = trunc nuw i8 %.pre to i1
  %.pre13 = trunc nuw i8 %.pre11 to i1
  br label %13

9:                                                ; preds = %6
  store i8 0, ptr @H5AC_init_g, align 1, !tbaa !3
  %10 = load i64, ptr @H5E_FUNC_g, align 8, !tbaa !10
  %11 = load i64, ptr @H5E_CANTINIT_g, align 8, !tbaa !10
  %12 = tail call i32 (ptr, ptr, i32, i64, i64, ptr, ...) @H5E_printf_stack(ptr noundef nonnull @.str.1, ptr noundef nonnull @__func__.H5AC_proxy_entry_create, i32 noundef 110, i64 noundef %10, i64 noundef %11, ptr noundef nonnull @.str.2) #3
  br label %25

13:                                               ; preds = %._crit_edge, %0
  %.pre-phi14 = phi i1 [ %.pre13, %._crit_edge ], [ %4, %0 ]
  %.pre-phi = phi i1 [ %.pre12, %._crit_edge ], [ %2, %0 ]
  %14 = xor i1 %.pre-phi14, true
  %15 = select i1 %.pre-phi, i1 true, i1 %14
  br i1 %15, label %16, label %25, !prof !9

16:                                               ; preds = %13
  %17 = tail call noalias ptr @H5FL_reg_calloc(ptr noundef nonnull @H5_H5AC_proxy_entry_t_reg_free_list) #3
  %18 = icmp eq ptr %17, null
  br i1 %18, label %19, label %23

19:                                               ; preds = %16
  %20 = load i64, ptr @H5E_CACHE_g, align 8, !tbaa !10
  %21 = load i64, ptr @H5E_CANTALLOC_g, align 8, !tbaa !10
  %22 = tail call i32 (ptr, ptr, i32, i64, i64, ptr, ...) @H5E_printf_stack(ptr noundef nonnull @.str.1, ptr noundef nonnull @__func__.H5AC_proxy_entry_create, i32 noundef 114, i64 noundef %20, i64 noundef %21, ptr noundef nonnull @.str.3) #3
  br label %25

23:                                               ; preds = %16
  %24 = getelementptr inbounds nuw i8, ptr %17, i64 248
  store i64 -1, ptr %24, align 8, !tbaa !25
  br label %25

25:                                               ; preds = %9, %19, %23, %13
  %.1 = phi ptr [ null, %13 ], [ null, %9 ], [ null, %19 ], [ %17, %23 ]
  ret ptr %.1
}